; Function Attrs: mustprogress uwtable
define void @_Z28grpc_sockaddr_make_wildcard6iP21grpc_resolved_address(i32 noundef %0, ptr noundef writeonly captures(none) %1) local_unnamed_addr #3 personality ptr @__gxx_personality_v0 {
  %3 = alloca %"class.absl::lts_20240722::log_internal::LogMessageFatal", align 8
  %4 = alloca %"class.absl::lts_20240722::log_internal::LogMessageFatal", align 8
  %5 = icmp slt i32 %0, 0
  br i1 %5, label %6, label %.critedge, !prof !3

6:                                                ; preds = %2
  call void @llvm.lifetime.start.p0(i64 16, ptr nonnull %3) #23
  call void @_ZN4absl12lts_2024072212log_internal15LogMessageFatalC1EPKciSt17basic_string_viewIcSt11char_traitsIcEE(ptr noundef nonnull align 8 dereferenceable(16) %3, ptr noundef nonnull @.str, i32 noundef 217, i64 9, ptr nonnull @.str.3) #24
  call void @_ZN4absl12lts_2024072212log_internal15LogMessageFatalD1Ev(ptr noundef nonnull align 8 dereferenceable(16) %3) #25
  unreachable

.critedge:                                        ; preds = %2
  %7 = icmp samesign ugt i32 %0, 65535
  br i1 %7, label %8, label %.critedge15, !prof !3

8:                                                ; preds = %.critedge
  call void @llvm.lifetime.start.p0(i64 16, ptr nonnull %4) #23
  call void @_ZN4absl12lts_2024072212log_internal15LogMessageFatalC1EPKciSt17basic_string_viewIcSt11char_traitsIcEE(ptr noundef nonnull align 8 dereferenceable(16) %4, ptr noundef nonnull @.str, i32 noundef 218, i64 12, ptr nonnull @.str.4) #24
  call void @_ZN4absl12lts_2024072212log_internal15LogMessageFatalD1Ev(ptr noundef nonnull align 8 dereferenceable(16) %4) #25
  unreachable

.critedge15:                                      ; preds = %.critedge
  tail call void @llvm.memset.p0.i64(ptr noundef nonnull align 4 dereferenceable(132) %1, i8 0, i64 132, i1 false)
  store i16 10, ptr %1, align 4, !tbaa !19
  %9 = trunc nuw i32 %0 to i16
  %10 = tail call noundef zeroext i16 @_Z10grpc_htonst(i16 noundef zeroext %9)
  %11 = getelementptr inbounds nuw i8, ptr %1, i64 2
  store i16 %10, ptr %11, align 2, !tbaa !13
  %12 = getelementptr inbounds nuw i8, ptr %1, i64 128
  store i32 28, ptr %12, align 4, !tbaa !17
  ret void
}